target datalayout = "e-m:e-p270:32:32-p271:32:32-p272:64:64-i64:64-i128:128-f80:128-n8:16:32:64-S128"
target triple = "x86_64-pc-linux-gnu"

%struct._lv_chart_t = type { %struct._lv_obj_t, %struct.lv_ll_t, %struct.lv_ll_t, [2 x i32], [2 x i32], [2 x i32], [2 x i32], i32, i32, i32, i32, i8 }
%struct._lv_obj_t = type { ptr, ptr, ptr, ptr, ptr, %struct.lv_area_t, i32, i16, i16 }
%struct.lv_area_t = type { i32, i32, i32, i32 }
%struct.lv_ll_t = type { i32, ptr, ptr }

; Function Attrs: nounwind uwtable
define void @lv_chart_set_update_mode(ptr noundef %0, i32 noundef %1) #0 {
  %3 = alloca ptr, align 8
  %4 = alloca i32, align 4
  %5 = alloca ptr, align 8
  %6 = alloca i32, align 4
  store ptr %0, ptr %3, align 8, !tbaa !3
  store i32 %1, ptr %4, align 4, !tbaa !7
  br label %7

7:                                                ; preds = %2
  br label %8

8:                                                ; preds = %7
  call void @llvm.lifetime.start.p0(i64 8, ptr %5) #5
  %9 = load ptr, ptr %3, align 8, !tbaa !3
  store ptr %9, ptr %5, align 8, !tbaa !3
  %10 = load ptr, ptr %5, align 8, !tbaa !3
  %11 = getelementptr inbounds nuw %struct._lv_chart_t, ptr %10, i32 0, i32 11
  %12 = load i8, ptr %11, align 8
  %13 = lshr i8 %12, 3
  %14 = and i8 %13, 1
  %15 = zext i8 %14 to i32
  %16 = load i32, ptr %4, align 4, !tbaa !7
  %17 = icmp eq i32 %15, %16
  br i1 %17, label %18, label %19

18:                                               ; preds = %8
  store i32 1, ptr %6, align 4
  br label %30

19:                                               ; preds = %8
  %20 = load i32, ptr %4, align 4, !tbaa !7
  %21 = load ptr, ptr %5, align 8, !tbaa !3
  %22 = getelementptr inbounds nuw %struct._lv_chart_t, ptr %21, i32 0, i32 11
  %23 = trunc i32 %20 to i8
  %24 = load i8, ptr %22, align 8
  %25 = and i8 %23, 1
  %26 = shl i8 %25, 3
  %27 = and i8 %24, -9
  %28 = or i8 %27, %26
  store i8 %28, ptr %22, align 8
  %29 = load ptr, ptr %3, align 8, !tbaa !3
  call void @lv_obj_invalidate(ptr noundef %29)
  store i32 0, ptr %6, align 4
  br label %30

30:                                               ; preds = %19, %18
  call void @llvm.lifetime.end.p0(i64 8, ptr %5) #5
  %31 = load i32, ptr %6, align 4
  switch i32 %31, label %33 [
    i32 0, label %32
    i32 1, label %32
  ]

32:                                               ; preds = %30, %30
  ret void

33:                                               ; preds = %30
  unreachable
}