; Function Attrs: nounwind uwtable
define void @lv_chart_set_update_mode(ptr noundef %0, i32 noundef %1) local_unnamed_addr #0 {
  %3 = getelementptr inbounds nuw i8, ptr %0, i64 160
  %4 = load i8, ptr %3, align 8
  %5 = lshr i8 %4, 3
  %6 = and i8 %5, 1
  %7 = zext nneg i8 %6 to i32
  %8 = icmp eq i32 %1, %7
  br i1 %8, label %15, label %9

9:                                                ; preds = %2
  %10 = trunc i32 %1 to i8
  %11 = shl i8 %10, 3
  %12 = and i8 %11, 8
  %13 = and i8 %4, -9
  %14 = or disjoint i8 %13, %12
  store i8 %14, ptr %3, align 8
  tail call void @lv_obj_invalidate(ptr noundef nonnull %0) #8
  br label %15

15:                                               ; preds = %2, %9
  ret void
}